target datalayout = "e-m:e-p270:32:32-p271:32:32-p272:64:64-i64:64-i128:128-f80:128-n8:16:32:64-S128"
target triple = "x86_64-pc-linux-gnu"

%struct.AVFilterContext = type { ptr, ptr, ptr, ptr, ptr, i32, ptr, ptr, i32, ptr, ptr, i32, i32, ptr, ptr, ptr, ptr, i32, ptr, i32, i32 }
%struct.SilenceDetectContext = type { ptr, double, i64, i32, i32, i32, ptr, ptr, i64, i32, %struct.AVRational, ptr }
%struct.AVRational = type { i32, i32 }
%struct.AVChannelLayout = type { i32, i32, %union.anon.1, ptr }
%union.anon.1 = type { i64 }
%struct.AVFrame = type { [8 x ptr], [8 x i32], ptr, i32, i32, i32, i32, i32, %struct.AVRational, i64, i64, %struct.AVRational, i32, ptr, i32, i32, [8 x ptr], ptr, i32, ptr, i32, i32, i32, i32, i32, i32, i32, i64, ptr, i32, ptr, ptr, i64, i64, i64, i64, ptr, %struct.AVChannelLayout, i64 }

@.str.3 = private unnamed_addr constant [14 x i8] c"silence_start\00", align 1
@.str.4 = private unnamed_addr constant [15 x i8] c"channel: %d | \00", align 1
@.str.5 = private unnamed_addr constant [19 x i8] c"silence_start: %s\0A\00", align 1
@.str.6 = private unnamed_addr constant [12 x i8] c"silence_end\00", align 1
@.str.7 = private unnamed_addr constant [17 x i8] c"silence_duration\00", align 1
@.str.8 = private unnamed_addr constant [40 x i8] c"silence_end: %s | silence_duration: %s\0A\00", align 1
@.str.9 = private unnamed_addr constant [12 x i8] c"lavfi.%s.%d\00", align 1
@.str.10 = private unnamed_addr constant [9 x i8] c"lavfi.%s\00", align 1

; Function Attrs: nounwind uwtable
define internal void @set_meta(ptr noundef %0, i32 noundef %1, ptr noundef %2, ptr noundef %3) #1 {
  %5 = alloca ptr, align 8
  %6 = alloca i32, align 4
  %7 = alloca ptr, align 8
  %8 = alloca ptr, align 8
  %9 = alloca [128 x i8], align 16
  store ptr %0, ptr %5, align 8, !tbaa !37
  store i32 %1, ptr %6, align 4, !tbaa !24
  store ptr %2, ptr %7, align 8, !tbaa !69
  store ptr %3, ptr %8, align 8, !tbaa !69
  call void @llvm.lifetime.start.p0(i64 128, ptr %9) #10
  %10 = load i32, ptr %6, align 4, !tbaa !24
  %11 = icmp ne i32 %10, 0
  br i1 %11, label %12, label %17

12:                                               ; preds = %4
  %13 = getelementptr inbounds [128 x i8], ptr %9, i64 0, i64 0
  %14 = load ptr, ptr %7, align 8, !tbaa !69
  %15 = load i32, ptr %6, align 4, !tbaa !24
  %16 = call i32 (ptr, i64, ptr, ...) @snprintf(ptr noundef %13, i64 noundef 128, ptr noundef @.str.9, ptr noundef %14, i32 noundef %15) #10
  br label %21

17:                                               ; preds = %4
  %18 = getelementptr inbounds [128 x i8], ptr %9, i64 0, i64 0
  %19 = load ptr, ptr %7, align 8, !tbaa !69
  %20 = call i32 (ptr, i64, ptr, ...) @snprintf(ptr noundef %18, i64 noundef 128, ptr noundef @.str.10, ptr noundef %19) #10
  br label %21

21:                                               ; preds = %17, %12
  %22 = load ptr, ptr %5, align 8, !tbaa !37
  %23 = getelementptr inbounds nuw %struct.AVFrame, ptr %22, i32 0, i32 28
  %24 = getelementptr inbounds [128 x i8], ptr %9, i64 0, i64 0
  %25 = load ptr, ptr %8, align 8, !tbaa !69
  %26 = call i32 @av_dict_set(ptr noundef %23, ptr noundef %24, ptr noundef %25, i32 noundef 0)
  call void @llvm.lifetime.end.p0(i64 128, ptr %9) #10
  ret void
}

; Function Attrs: inlinehint nounwind uwtable
define internal ptr @av_ts_make_time_string(ptr noundef %0, i64 noundef %1, ptr noundef %2) #7 {
  %4 = alloca ptr, align 8
  %5 = alloca i64, align 8
  %6 = alloca ptr, align 8
  store ptr %0, ptr %4, align 8, !tbaa !69
  store i64 %1, ptr %5, align 8, !tbaa !32
  store ptr %2, ptr %6, align 8, !tbaa !96
  %7 = load ptr, ptr %4, align 8, !tbaa !69
  %8 = load i64, ptr %5, align 8, !tbaa !32
  %9 = load ptr, ptr %6, align 8, !tbaa !96
  %10 = load i64, ptr %9, align 4
  %11 = call ptr @av_ts_make_time_string2(ptr noundef %7, i64 noundef %8, i64 %10)
  ret ptr %11
}

; Function Attrs: alwaysinline nounwind uwtable
define internal void @update(ptr noundef %0, ptr noundef %1, i32 noundef %2, i32 noundef %3, i64 noundef %4, i64 %5) #6 {
  %7 = alloca %struct.AVRational, align 4
  %8 = alloca ptr, align 8
  %9 = alloca ptr, align 8
  %10 = alloca i32, align 4
  %11 = alloca i32, align 4
  %12 = alloca i64, align 8
  %13 = alloca i32, align 4
  %14 = alloca %struct.AVRational, align 4
  %15 = alloca [32 x i8], align 1
  %16 = alloca [32 x i8], align 1
  %17 = alloca i64, align 8
  %18 = alloca %struct.AVRational, align 4
  %19 = alloca i64, align 8
  %20 = alloca [32 x i8], align 1
  %21 = alloca [32 x i8], align 1
  %22 = alloca [32 x i8], align 1
  %23 = alloca [32 x i8], align 1
  store i64 %5, ptr %7, align 4
  store ptr %0, ptr %8, align 8, !tbaa !22
  store ptr %1, ptr %9, align 8, !tbaa !37
  store i32 %2, ptr %10, align 4, !tbaa !24
  store i32 %3, ptr %11, align 4, !tbaa !24
  store i64 %4, ptr %12, align 8, !tbaa !32
  call void @llvm.lifetime.start.p0(i64 4, ptr %13) #10
  %24 = load i32, ptr %11, align 4, !tbaa !24
  %25 = load ptr, ptr %8, align 8, !tbaa !22
  %26 = getelementptr inbounds nuw %struct.SilenceDetectContext, ptr %25, i32 0, i32 5
  %27 = load i32, ptr %26, align 8, !tbaa !25
  %28 = srem i32 %24, %27
  store i32 %28, ptr %13, align 4, !tbaa !24
  %29 = load i32, ptr %10, align 4, !tbaa !24
  %30 = icmp ne i32 %29, 0
  br i1 %30, label %31, label %136

31:                                               ; preds = %6
  %32 = load ptr, ptr %8, align 8, !tbaa !22
  %33 = getelementptr inbounds nuw %struct.SilenceDetectContext, ptr %32, i32 0, i32 7
  %34 = load ptr, ptr %33, align 8, !tbaa !31
  %35 = load i32, ptr %13, align 4, !tbaa !24
  %36 = sext i32 %35 to i64
  %37 = getelementptr inbounds i64, ptr %34, i64 %36
  %38 = load i64, ptr %37, align 8, !tbaa !32
  %39 = icmp eq i64 %38, -9223372036854775808
  br i1 %39, label %40, label %135

40:                                               ; preds = %31
  %41 = load ptr, ptr %8, align 8, !tbaa !22
  %42 = getelementptr inbounds nuw %struct.SilenceDetectContext, ptr %41, i32 0, i32 6
  %43 = load ptr, ptr %42, align 8, !tbaa !56
  %44 = load i32, ptr %13, align 4, !tbaa !24
  %45 = sext i32 %44 to i64
  %46 = getelementptr inbounds i64, ptr %43, i64 %45
  %47 = load i64, ptr %46, align 8, !tbaa !32
  %48 = add nsw i64 %47, 1
  store i64 %48, ptr %46, align 8, !tbaa !32
  %49 = load ptr, ptr %8, align 8, !tbaa !22
  %50 = getelementptr inbounds nuw %struct.SilenceDetectContext, ptr %49, i32 0, i32 6
  %51 = load ptr, ptr %50, align 8, !tbaa !56
  %52 = load i32, ptr %13, align 4, !tbaa !24
  %53 = sext i32 %52 to i64
  %54 = getelementptr inbounds i64, ptr %51, i64 %53
  %55 = load i64, ptr %54, align 8, !tbaa !32
  %56 = load i64, ptr %12, align 8, !tbaa !32
  %57 = icmp sge i64 %55, %56
  br i1 %57, label %58, label %134

58:                                               ; preds = %40
  %59 = load ptr, ptr %9, align 8, !tbaa !37
  %60 = getelementptr inbounds nuw %struct.AVFrame, ptr %59, i32 0, i32 9
  %61 = load i64, ptr %60, align 8, !tbaa !59
  %62 = load i32, ptr %11, align 4, !tbaa !24
  %63 = load ptr, ptr %8, align 8, !tbaa !22
  %64 = getelementptr inbounds nuw %struct.SilenceDetectContext, ptr %63, i32 0, i32 4
  %65 = load i32, ptr %64, align 4, !tbaa !65
  %66 = sdiv i32 %62, %65
  %67 = add nsw i32 %66, 1
  %68 = sext i32 %67 to i64
  %69 = load i64, ptr %12, align 8, !tbaa !32
  %70 = load ptr, ptr %8, align 8, !tbaa !22
  %71 = getelementptr inbounds nuw %struct.SilenceDetectContext, ptr %70, i32 0, i32 5
  %72 = load i32, ptr %71, align 8, !tbaa !25
  %73 = sext i32 %72 to i64
  %74 = mul nsw i64 %69, %73
  %75 = load ptr, ptr %8, align 8, !tbaa !22
  %76 = getelementptr inbounds nuw %struct.SilenceDetectContext, ptr %75, i32 0, i32 4
  %77 = load i32, ptr %76, align 4, !tbaa !65
  %78 = sext i32 %77 to i64
  %79 = sdiv i64 %74, %78
  %80 = sub nsw i64 %68, %79
  %81 = getelementptr inbounds nuw %struct.AVRational, ptr %14, i32 0, i32 0
  store i32 1, ptr %81, align 4, !tbaa !60
  %82 = getelementptr inbounds nuw %struct.AVRational, ptr %14, i32 0, i32 1
  %83 = load ptr, ptr %8, align 8, !tbaa !22
  %84 = getelementptr inbounds nuw %struct.SilenceDetectContext, ptr %83, i32 0, i32 9
  %85 = load i32, ptr %84, align 8, !tbaa !55
  store i32 %85, ptr %82, align 4, !tbaa !61
  %86 = load i64, ptr %14, align 4
  %87 = load i64, ptr %7, align 4
  %88 = call i64 @av_rescale_q(i64 noundef %80, i64 %86, i64 %87) #11
  %89 = add nsw i64 %61, %88
  %90 = load ptr, ptr %8, align 8, !tbaa !22
  %91 = getelementptr inbounds nuw %struct.SilenceDetectContext, ptr %90, i32 0, i32 7
  %92 = load ptr, ptr %91, align 8, !tbaa !31
  %93 = load i32, ptr %13, align 4, !tbaa !24
  %94 = sext i32 %93 to i64
  %95 = getelementptr inbounds i64, ptr %92, i64 %94
  store i64 %89, ptr %95, align 8, !tbaa !32
  %96 = load ptr, ptr %9, align 8, !tbaa !37
  %97 = load ptr, ptr %8, align 8, !tbaa !22
  %98 = getelementptr inbounds nuw %struct.SilenceDetectContext, ptr %97, i32 0, i32 3
  %99 = load i32, ptr %98, align 8, !tbaa !54
  %100 = icmp ne i32 %99, 0
  br i1 %100, label %101, label %104

101:                                              ; preds = %58
  %102 = load i32, ptr %13, align 4, !tbaa !24
  %103 = add nsw i32 %102, 1
  br label %105

104:                                              ; preds = %58
  br label %105

105:                                              ; preds = %104, %101
  %106 = phi i32 [ %103, %101 ], [ 0, %104 ]
  call void @llvm.memset.p0.i64(ptr align 1 %15, i8 0, i64 32, i1 false)
  %107 = getelementptr inbounds [32 x i8], ptr %15, i64 0, i64 0
  %108 = load ptr, ptr %8, align 8, !tbaa !22
  %109 = getelementptr inbounds nuw %struct.SilenceDetectContext, ptr %108, i32 0, i32 7
  %110 = load ptr, ptr %109, align 8, !tbaa !31
  %111 = load i32, ptr %13, align 4, !tbaa !24
  %112 = sext i32 %111 to i64
  %113 = getelementptr inbounds i64, ptr %110, i64 %112
  %114 = load i64, ptr %113, align 8, !tbaa !32
  %115 = call ptr @av_ts_make_time_string(ptr noundef %107, i64 noundef %114, ptr noundef %7)
  call void @set_meta(ptr noundef %96, i32 noundef %106, ptr noundef @.str.3, ptr noundef %115)
  %116 = load ptr, ptr %8, align 8, !tbaa !22
  %117 = getelementptr inbounds nuw %struct.SilenceDetectContext, ptr %116, i32 0, i32 3
  %118 = load i32, ptr %117, align 8, !tbaa !54
  %119 = icmp ne i32 %118, 0
  br i1 %119, label %120, label %123

120:                                              ; preds = %105
  %121 = load ptr, ptr %8, align 8, !tbaa !22
  %122 = load i32, ptr %13, align 4, !tbaa !24
  call void (ptr, i32, ptr, ...) @av_log(ptr noundef %121, i32 noundef 32, ptr noundef @.str.4, i32 noundef %122)
  br label %123

123:                                              ; preds = %120, %105
  %124 = load ptr, ptr %8, align 8, !tbaa !22
  call void @llvm.memset.p0.i64(ptr align 1 %16, i8 0, i64 32, i1 false)
  %125 = getelementptr inbounds [32 x i8], ptr %16, i64 0, i64 0
  %126 = load ptr, ptr %8, align 8, !tbaa !22
  %127 = getelementptr inbounds nuw %struct.SilenceDetectContext, ptr %126, i32 0, i32 7
  %128 = load ptr, ptr %127, align 8, !tbaa !31
  %129 = load i32, ptr %13, align 4, !tbaa !24
  %130 = sext i32 %129 to i64
  %131 = getelementptr inbounds i64, ptr %128, i64 %130
  %132 = load i64, ptr %131, align 8, !tbaa !32
  %133 = call ptr @av_ts_make_time_string(ptr noundef %125, i64 noundef %132, ptr noundef %7)
  call void (ptr, i32, ptr, ...) @av_log(ptr noundef %124, i32 noundef 32, ptr noundef @.str.5, ptr noundef %133)
  br label %134

134:                                              ; preds = %123, %40
  br label %135

135:                                              ; preds = %134, %31
  br label %242

136:                                              ; preds = %6
  %137 = load ptr, ptr %8, align 8, !tbaa !22
  %138 = getelementptr inbounds nuw %struct.SilenceDetectContext, ptr %137, i32 0, i32 7
  %139 = load ptr, ptr %138, align 8, !tbaa !31
  %140 = load i32, ptr %13, align 4, !tbaa !24
  %141 = sext i32 %140 to i64
  %142 = getelementptr inbounds i64, ptr %139, i64 %141
  %143 = load i64, ptr %142, align 8, !tbaa !32
  %144 = icmp sgt i64 %143, -9223372036854775808
  br i1 %144, label %145, label %229

145:                                              ; preds = %136
  call void @llvm.lifetime.start.p0(i64 8, ptr %17) #10
  %146 = load ptr, ptr %9, align 8, !tbaa !37
  %147 = icmp ne ptr %146, null
  br i1 %147, label %148, label %167

148:                                              ; preds = %145
  %149 = load ptr, ptr %9, align 8, !tbaa !37
  %150 = getelementptr inbounds nuw %struct.AVFrame, ptr %149, i32 0, i32 9
  %151 = load i64, ptr %150, align 8, !tbaa !59
  %152 = load i32, ptr %11, align 4, !tbaa !24
  %153 = load ptr, ptr %8, align 8, !tbaa !22
  %154 = getelementptr inbounds nuw %struct.SilenceDetectContext, ptr %153, i32 0, i32 4
  %155 = load i32, ptr %154, align 4, !tbaa !65
  %156 = sdiv i32 %152, %155
  %157 = sext i32 %156 to i64
  %158 = getelementptr inbounds nuw %struct.AVRational, ptr %18, i32 0, i32 0
  store i32 1, ptr %158, align 4, !tbaa !60
  %159 = getelementptr inbounds nuw %struct.AVRational, ptr %18, i32 0, i32 1
  %160 = load ptr, ptr %8, align 8, !tbaa !22
  %161 = getelementptr inbounds nuw %struct.SilenceDetectContext, ptr %160, i32 0, i32 9
  %162 = load i32, ptr %161, align 8, !tbaa !55
  store i32 %162, ptr %159, align 4, !tbaa !61
  %163 = load i64, ptr %18, align 4
  %164 = load i64, ptr %7, align 4
  %165 = call i64 @av_rescale_q(i64 noundef %157, i64 %163, i64 %164) #11
  %166 = add nsw i64 %151, %165
  br label %171

167:                                              ; preds = %145
  %168 = load ptr, ptr %8, align 8, !tbaa !22
  %169 = getelementptr inbounds nuw %struct.SilenceDetectContext, ptr %168, i32 0, i32 8
  %170 = load i64, ptr %169, align 8, !tbaa !62
  br label %171

171:                                              ; preds = %167, %148
  %172 = phi i64 [ %166, %148 ], [ %170, %167 ]
  store i64 %172, ptr %17, align 8, !tbaa !32
  call void @llvm.lifetime.start.p0(i64 8, ptr %19) #10
  %173 = load i64, ptr %17, align 8, !tbaa !32
  %174 = load ptr, ptr %8, align 8, !tbaa !22
  %175 = getelementptr inbounds nuw %struct.SilenceDetectContext, ptr %174, i32 0, i32 7
  %176 = load ptr, ptr %175, align 8, !tbaa !31
  %177 = load i32, ptr %13, align 4, !tbaa !24
  %178 = sext i32 %177 to i64
  %179 = getelementptr inbounds i64, ptr %176, i64 %178
  %180 = load i64, ptr %179, align 8, !tbaa !32
  %181 = sub nsw i64 %173, %180
  store i64 %181, ptr %19, align 8, !tbaa !32
  %182 = load ptr, ptr %9, align 8, !tbaa !37
  %183 = icmp ne ptr %182, null
  br i1 %183, label %184, label %213

184:                                              ; preds = %171
  %185 = load ptr, ptr %9, align 8, !tbaa !37
  %186 = load ptr, ptr %8, align 8, !tbaa !22
  %187 = getelementptr inbounds nuw %struct.SilenceDetectContext, ptr %186, i32 0, i32 3
  %188 = load i32, ptr %187, align 8, !tbaa !54
  %189 = icmp ne i32 %188, 0
  br i1 %189, label %190, label %193

190:                                              ; preds = %184
  %191 = load i32, ptr %13, align 4, !tbaa !24
  %192 = add nsw i32 %191, 1
  br label %194

193:                                              ; preds = %184
  br label %194

194:                                              ; preds = %193, %190
  %195 = phi i32 [ %192, %190 ], [ 0, %193 ]
  call void @llvm.memset.p0.i64(ptr align 1 %20, i8 0, i64 32, i1 false)
  %196 = getelementptr inbounds [32 x i8], ptr %20, i64 0, i64 0
  %197 = load i64, ptr %17, align 8, !tbaa !32
  %198 = call ptr @av_ts_make_time_string(ptr noundef %196, i64 noundef %197, ptr noundef %7)
  call void @set_meta(ptr noundef %185, i32 noundef %195, ptr noundef @.str.6, ptr noundef %198)
  %199 = load ptr, ptr %9, align 8, !tbaa !37
  %200 = load ptr, ptr %8, align 8, !tbaa !22
  %201 = getelementptr inbounds nuw %struct.SilenceDetectContext, ptr %200, i32 0, i32 3
  %202 = load i32, ptr %201, align 8, !tbaa !54
  %203 = icmp ne i32 %202, 0
  br i1 %203, label %204, label %207

204:                                              ; preds = %194
  %205 = load i32, ptr %13, align 4, !tbaa !24
  %206 = add nsw i32 %205, 1
  br label %208

207:                                              ; preds = %194
  br label %208

208:                                              ; preds = %207, %204
  %209 = phi i32 [ %206, %204 ], [ 0, %207 ]
  call void @llvm.memset.p0.i64(ptr align 1 %21, i8 0, i64 32, i1 false)
  %210 = getelementptr inbounds [32 x i8], ptr %21, i64 0, i64 0
  %211 = load i64, ptr %19, align 8, !tbaa !32
  %212 = call ptr @av_ts_make_time_string(ptr noundef %210, i64 noundef %211, ptr noundef %7)
  call void @set_meta(ptr noundef %199, i32 noundef %209, ptr noundef @.str.7, ptr noundef %212)
  br label %213

213:                                              ; preds = %208, %171
  %214 = load ptr, ptr %8, align 8, !tbaa !22
  %215 = getelementptr inbounds nuw %struct.SilenceDetectContext, ptr %214, i32 0, i32 3
  %216 = load i32, ptr %215, align 8, !tbaa !54
  %217 = icmp ne i32 %216, 0
  br i1 %217, label %218, label %221

218:                                              ; preds = %213
  %219 = load ptr, ptr %8, align 8, !tbaa !22
  %220 = load i32, ptr %13, align 4, !tbaa !24
  call void (ptr, i32, ptr, ...) @av_log(ptr noundef %219, i32 noundef 32, ptr noundef @.str.4, i32 noundef %220)
  br label %221

221:                                              ; preds = %218, %213
  %222 = load ptr, ptr %8, align 8, !tbaa !22
  call void @llvm.memset.p0.i64(ptr align 1 %22, i8 0, i64 32, i1 false)
  %223 = getelementptr inbounds [32 x i8], ptr %22, i64 0, i64 0
  %224 = load i64, ptr %17, align 8, !tbaa !32
  %225 = call ptr @av_ts_make_time_string(ptr noundef %223, i64 noundef %224, ptr noundef %7)
  call void @llvm.memset.p0.i64(ptr align 1 %23, i8 0, i64 32, i1 false)
  %226 = getelementptr inbounds [32 x i8], ptr %23, i64 0, i64 0
  %227 = load i64, ptr %19, align 8, !tbaa !32
  %228 = call ptr @av_ts_make_time_string(ptr noundef %226, i64 noundef %227, ptr noundef %7)
  call void (ptr, i32, ptr, ...) @av_log(ptr noundef %222, i32 noundef 32, ptr noundef @.str.8, ptr noundef %225, ptr noundef %228)
  call void @llvm.lifetime.end.p0(i64 8, ptr %19) #10
  call void @llvm.lifetime.end.p0(i64 8, ptr %17) #10
  br label %229

229:                                              ; preds = %221, %136
  %230 = load ptr, ptr %8, align 8, !tbaa !22
  %231 = getelementptr inbounds nuw %struct.SilenceDetectContext, ptr %230, i32 0, i32 6
  %232 = load ptr, ptr %231, align 8, !tbaa !56
  %233 = load i32, ptr %13, align 4, !tbaa !24
  %234 = sext i32 %233 to i64
  %235 = getelementptr inbounds i64, ptr %232, i64 %234
  store i64 0, ptr %235, align 8, !tbaa !32
  %236 = load ptr, ptr %8, align 8, !tbaa !22
  %237 = getelementptr inbounds nuw %struct.SilenceDetectContext, ptr %236, i32 0, i32 7
  %238 = load ptr, ptr %237, align 8, !tbaa !31
  %239 = load i32, ptr %13, align 4, !tbaa !24
  %240 = sext i32 %239 to i64
  %241 = getelementptr inbounds i64, ptr %238, i64 %240
  store i64 -9223372036854775808, ptr %241, align 8, !tbaa !32
  br label %242

242:                                              ; preds = %229, %135
  call void @llvm.lifetime.end.p0(i64 4, ptr %13) #10
  ret void
}

; Function Attrs: cold nounwind optsize uwtable
define internal void @uninit(ptr noundef %0) #0 {
  %2 = alloca ptr, align 8
  %3 = alloca ptr, align 8
  %4 = alloca i32, align 4
  store ptr %0, ptr %2, align 8, !tbaa !4
  call void @llvm.lifetime.start.p0(i64 8, ptr %3) #10
  %5 = load ptr, ptr %2, align 8, !tbaa !4
  %6 = getelementptr inbounds nuw %struct.AVFilterContext, ptr %5, i32 0, i32 9
  %7 = load ptr, ptr %6, align 8, !tbaa !9
  store ptr %7, ptr %3, align 8, !tbaa !22
  call void @llvm.lifetime.start.p0(i64 4, ptr %4) #10
  store i32 0, ptr %4, align 4, !tbaa !24
  br label %8

8:                                                ; preds = %30, %1
  %9 = load i32, ptr %4, align 4, !tbaa !24
  %10 = load ptr, ptr %3, align 8, !tbaa !22
  %11 = getelementptr inbounds nuw %struct.SilenceDetectContext, ptr %10, i32 0, i32 5
  %12 = load i32, ptr %11, align 8, !tbaa !25
  %13 = icmp slt i32 %9, %12
  br i1 %13, label %14, label %33

14:                                               ; preds = %8
  %15 = load ptr, ptr %3, align 8, !tbaa !22
  %16 = getelementptr inbounds nuw %struct.SilenceDetectContext, ptr %15, i32 0, i32 7
  %17 = load ptr, ptr %16, align 8, !tbaa !31
  %18 = load i32, ptr %4, align 4, !tbaa !24
  %19 = sext i32 %18 to i64
  %20 = getelementptr inbounds i64, ptr %17, i64 %19
  %21 = load i64, ptr %20, align 8, !tbaa !32
  %22 = icmp sgt i64 %21, -9223372036854775808
  br i1 %22, label %23, label %29

23:                                               ; preds = %14
  %24 = load ptr, ptr %3, align 8, !tbaa !22
  %25 = load i32, ptr %4, align 4, !tbaa !24
  %26 = load ptr, ptr %3, align 8, !tbaa !22
  %27 = getelementptr inbounds nuw %struct.SilenceDetectContext, ptr %26, i32 0, i32 10
  %28 = load i64, ptr %27, align 4
  call void @update(ptr noundef %24, ptr noundef null, i32 noundef 0, i32 noundef %25, i64 noundef 0, i64 %28)
  br label %29

29:                                               ; preds = %23, %14
  br label %30

30:                                               ; preds = %29
  %31 = load i32, ptr %4, align 4, !tbaa !24
  %32 = add nsw i32 %31, 1
  store i32 %32, ptr %4, align 4, !tbaa !24
  br label %8, !llvm.loop !33

33:                                               ; preds = %8
  %34 = load ptr, ptr %3, align 8, !tbaa !22
  %35 = getelementptr inbounds nuw %struct.SilenceDetectContext, ptr %34, i32 0, i32 6
  call void @av_freep(ptr noundef %35)
  %36 = load ptr, ptr %3, align 8, !tbaa !22
  %37 = getelementptr inbounds nuw %struct.SilenceDetectContext, ptr %36, i32 0, i32 7
  call void @av_freep(ptr noundef %37)
  call void @llvm.lifetime.end.p0(i64 4, ptr %4) #10
  call void @llvm.lifetime.end.p0(i64 8, ptr %3) #10
  ret void
}