; Function Attrs: cold nounwind optsize uwtable
define internal void @uninit(ptr noundef readonly captures(none) %0) #0 {
  %2 = alloca [32 x i8], align 1
  %3 = alloca [32 x i8], align 1
  %4 = getelementptr inbounds nuw i8, ptr %0, i64 72
  %5 = load ptr, ptr %4, align 8, !tbaa !4
  %6 = getelementptr inbounds nuw i8, ptr %5, i64 32
  %7 = load i32, ptr %6, align 8, !tbaa !20
  %8 = icmp sgt i32 %7, 0
  br i1 %8, label %.lr.ph, label %._crit_edge

.lr.ph:                                           ; preds = %1
  %9 = getelementptr inbounds nuw i8, ptr %5, i64 48
  %10 = getelementptr inbounds nuw i8, ptr %5, i64 68
  %11 = getelementptr inbounds nuw i8, ptr %5, i64 56
  %12 = getelementptr inbounds nuw i8, ptr %5, i64 24
  %13 = getelementptr inbounds nuw i8, ptr %5, i64 40
  %.pre = load ptr, ptr %9, align 8, !tbaa !26
  br label %14

14:                                               ; preds = %.lr.ph, %39
  %.pre1516 = phi i32 [ %7, %.lr.ph ], [ %.pre1517, %39 ]
  %15 = phi i32 [ %7, %.lr.ph ], [ %40, %39 ]
  %16 = phi ptr [ %.pre, %.lr.ph ], [ %41, %39 ]
  %17 = phi ptr [ %.pre, %.lr.ph ], [ %42, %39 ]
  %indvars.iv = phi i64 [ 0, %.lr.ph ], [ %indvars.iv.next, %39 ]
  %18 = getelementptr inbounds nuw i64, ptr %17, i64 %indvars.iv
  %19 = load i64, ptr %18, align 8, !tbaa !27
  %.not = icmp eq i64 %19, -9223372036854775808
  br i1 %.not, label %39, label %20

20:                                               ; preds = %14
  %21 = load i64, ptr %10, align 4
  call void @llvm.lifetime.start.p0(i64 32, ptr nonnull %2)
  call void @llvm.lifetime.start.p0(i64 32, ptr nonnull %3)
  %22 = trunc nuw nsw i64 %indvars.iv to i32
  %23 = srem i32 %22, %15
  %24 = zext nneg i32 %23 to i64
  %25 = getelementptr inbounds nuw i64, ptr %17, i64 %24
  %26 = load i64, ptr %25, align 8, !tbaa !27
  %.not62.i = icmp eq i64 %26, -9223372036854775808
  br i1 %.not62.i, label %update.exit, label %27

27:                                               ; preds = %20
  %28 = load i64, ptr %11, align 8, !tbaa !28
  %29 = sub nsw i64 %28, %26
  %30 = load i32, ptr %12, align 8, !tbaa !29
  %.not66.i = icmp eq i32 %30, 0
  br i1 %.not66.i, label %32, label %31

31:                                               ; preds = %27
  call void (ptr, i32, ptr, ...) @av_log(ptr noundef nonnull %5, i32 noundef 32, ptr noundef nonnull @.str.4, i32 noundef %23) #7
  br label %32

32:                                               ; preds = %31, %27
  call void @llvm.memset.p0.i64(ptr noundef nonnull align 1 dereferenceable(32) %2, i8 0, i64 32, i1 false)
  %33 = call ptr @av_ts_make_time_string2(ptr noundef nonnull %2, i64 noundef %28, i64 %21) #7
  call void @llvm.memset.p0.i64(ptr noundef nonnull align 1 dereferenceable(32) %3, i8 0, i64 32, i1 false)
  %34 = call ptr @av_ts_make_time_string2(ptr noundef nonnull %3, i64 noundef %29, i64 %21) #7
  call void (ptr, i32, ptr, ...) @av_log(ptr noundef nonnull %5, i32 noundef 32, ptr noundef nonnull @.str.8, ptr noundef %33, ptr noundef %34) #7
  %.pre14 = load ptr, ptr %9, align 8, !tbaa !26
  %.pre15.pre = load i32, ptr %6, align 8, !tbaa !20
  br label %update.exit

update.exit:                                      ; preds = %20, %32
  %.pre15 = phi i32 [ %.pre1516, %20 ], [ %.pre15.pre, %32 ]
  %35 = phi ptr [ %16, %20 ], [ %.pre14, %32 ]
  %36 = load ptr, ptr %13, align 8, !tbaa !30
  %37 = getelementptr inbounds nuw i64, ptr %36, i64 %24
  store i64 0, ptr %37, align 8, !tbaa !27
  %38 = getelementptr inbounds nuw i64, ptr %35, i64 %24
  store i64 -9223372036854775808, ptr %38, align 8, !tbaa !27
  call void @llvm.lifetime.end.p0(i64 32, ptr nonnull %2)
  call void @llvm.lifetime.end.p0(i64 32, ptr nonnull %3)
  br label %39

39:                                               ; preds = %14, %update.exit
  %.pre1517 = phi i32 [ %.pre1516, %14 ], [ %.pre15, %update.exit ]
  %40 = phi i32 [ %15, %14 ], [ %.pre15, %update.exit ]
  %41 = phi ptr [ %16, %14 ], [ %35, %update.exit ]
  %42 = phi ptr [ %17, %14 ], [ %35, %update.exit ]
  %indvars.iv.next = add nuw nsw i64 %indvars.iv, 1
  %43 = sext i32 %40 to i64
  %44 = icmp slt i64 %indvars.iv.next, %43
  br i1 %44, label %14, label %._crit_edge, !llvm.loop !31

._crit_edge:                                      ; preds = %39, %1
  %45 = getelementptr inbounds nuw i8, ptr %5, i64 40
  call void @av_freep(ptr noundef nonnull %45) #7
  %46 = getelementptr inbounds nuw i8, ptr %5, i64 48
  call void @av_freep(ptr noundef nonnull %46) #7
  ret void
}